; ModuleID = '16/207.c'
source_filename = "16/207.c"
target datalayout = "e-m:e-p270:32:32-p271:32:32-p272:64:64-i64:64-f80:128-n8:16:32:64-S128"
target triple = "x86_64-pc-linux-gnu"

@.str = private unnamed_addr constant [3 x i8] c"%d\00", align 1
@.str.1 = private unnamed_addr constant [2 x i8] c"0\00", align 1

; Function Attrs: noinline nounwind uwtable
define dso_local i32 @main() #0 {
  %1 = alloca i32, align 4
  %2 = alloca i32, align 4
  %3 = alloca i32, align 4
  %4 = alloca i32, align 4
  %5 = alloca i32, align 4
  %6 = alloca i32, align 4
  %7 = alloca i32, align 4
  %8 = alloca i32, align 4
  store i32 0, i32* %1, align 4
  %9 = call i32 (i8*, ...) @__isoc99_scanf(i8* getelementptr inbounds ([3 x i8], [3 x i8]* @.str, i64 0, i64 0), i32* %2)
  %10 = load i32, i32* %2, align 4
  store i32 %10, i32* %3, align 4
  store i32 0, i32* %5, align 4
  store i32 0, i32* %6, align 4
  br label %11

11:                                               ; preds = %14, %0
  %12 = load i32, i32* %3, align 4
  %13 = icmp sgt i32 %12, 0
  br i1 %13, label %14, label %25

14:                                               ; preds = %11
  %15 = load i32, i32* %6, align 4
  %16 = add nsw i32 %15, 1
  store i32 %16, i32* %6, align 4
  %17 = load i32, i32* %3, align 4
  %18 = srem i32 %17, 10
  store i32 %18, i32* %4, align 4
  %19 = load i32, i32* %3, align 4
  %20 = sdiv i32 %19, 10
  store i32 %20, i32* %3, align 4
  %21 = load i32, i32* %4, align 4
  %22 = load i32, i32* %5, align 4
  %23 = mul nsw i32 %22, 10
  %24 = add nsw i32 %21, %23
  store i32 %24, i32* %5, align 4
  br label %11

25:                                               ; preds = %11
  %26 = load i32, i32* %5, align 4
  store i32 %26, i32* %3, align 4
  store i32 0, i32* %7, align 4
  br label %27

27:                                               ; preds = %30, %25
  %28 = load i32, i32* %3, align 4
  %29 = icmp sgt i32 %28, 0
  br i1 %29, label %30, label %35

30:                                               ; preds = %27
  %31 = load i32, i32* %7, align 4
  %32 = add nsw i32 %31, 1
  store i32 %32, i32* %7, align 4
  %33 = load i32, i32* %3, align 4
  %34 = sdiv i32 %33, 10
  store i32 %34, i32* %3, align 4
  br label %27

35:                                               ; preds = %27
  store i32 1, i32* %8, align 4
  br label %36

36:                                               ; preds = %44, %35
  %37 = load i32, i32* %8, align 4
  %38 = load i32, i32* %6, align 4
  %39 = load i32, i32* %7, align 4
  %40 = sub nsw i32 %38, %39
  %41 = icmp sle i32 %37, %40
  br i1 %41, label %42, label %47

42:                                               ; preds = %36
  %43 = call i32 (i8*, ...) @printf(i8* getelementptr inbounds ([2 x i8], [2 x i8]* @.str.1, i64 0, i64 0))
  br label %44

44:                                               ; preds = %42
  %45 = load i32, i32* %8, align 4
  %46 = add nsw i32 %45, 1
  store i32 %46, i32* %8, align 4
  br label %36

47:                                               ; preds = %36
  %48 = load i32, i32* %5, align 4
  %49 = call i32 (i8*, ...) @printf(i8* getelementptr inbounds ([3 x i8], [3 x i8]* @.str, i64 0, i64 0), i32 %48)
  %50 = load i32, i32* %1, align 4
  ret i32 %50
}

declare dso_local i32 @__isoc99_scanf(i8*, ...) #1

declare dso_local i32 @printf(i8*, ...) #1


!llvm.module.flags = !{!0}
!llvm.ident = !{!1}

!0 = !{i32 1, !"wchar_size", i32 4}
!1 = !{!"clang version 10.0.0-4ubuntu1 "}
